target datalayout = "e-m:e-p270:32:32-p271:32:32-p272:64:64-i64:64-i128:128-f80:128-n8:16:32:64-S128"
target triple = "x86_64-pc-linux-gnu"

%struct._zval_struct = type { %union._zend_value, %union.anon, %union.anon.2 }
%union._zend_value = type { i64 }
%union.anon = type { i32 }
%union.anon.2 = type { i32 }
%struct._zend_array = type { %struct._zend_refcounted_h, %union.anon.4, i32, %union.anon.6, i32, i32, i32, i32, i64, ptr }
%struct._zend_refcounted_h = type { i32, %union.anon.3 }
%union.anon.3 = type { i32 }
%union.anon.4 = type { i32 }
%union.anon.6 = type { ptr }
%struct._spl_fixedarray_object = type { %struct._spl_fixedarray, ptr, %struct._zend_object }
%struct._spl_fixedarray = type { i64, ptr, i64 }
%struct._zend_object = type { %struct._zend_refcounted_h, i32, ptr, ptr, ptr, [1 x %struct._zval_struct] }
%struct._zend_refcounted = type { %struct._zend_refcounted_h }
%struct._zend_class_entry = type { i8, ptr, %union.anon.8, i32, i32, i32, i32, ptr, ptr, ptr, %struct._zend_array, %struct._zend_array, %struct._zend_array, ptr, ptr, ptr, ptr, ptr, ptr, ptr, ptr, ptr, ptr, ptr, ptr, ptr, ptr, ptr, ptr, ptr, ptr, ptr, %union.anon.9, ptr, ptr, ptr, ptr, i32, i32, %union.anon.10, ptr, ptr, ptr, ptr, i32, ptr, ptr, %union.anon.11 }
%union.anon.8 = type { ptr }
%union.anon.9 = type { ptr }
%union.anon.10 = type { ptr }
%union.anon.11 = type { %struct.anon.12 }
%struct.anon.12 = type { ptr, i32, i32 }
%struct.anon.7 = type { i8, [3 x i8], i32, ptr, ptr, ptr, i32, i32, ptr, ptr, ptr, ptr, i32 }

@spl_ce_SplFixedArray = global ptr null, align 8
@zend_known_strings = external global ptr, align 8

; Function Attrs: nounwind uwtable
define internal void @spl_fixedarray_default_ctor(ptr noundef %0) #0 {
  %2 = alloca ptr, align 8
  store ptr %0, ptr %2, align 8
  %3 = load ptr, ptr %2, align 8
  %4 = getelementptr inbounds %struct._spl_fixedarray, ptr %3, i32 0, i32 0
  store i64 0, ptr %4, align 8
  %5 = load ptr, ptr %2, align 8
  %6 = getelementptr inbounds %struct._spl_fixedarray, ptr %5, i32 0, i32 1
  store ptr null, ptr %6, align 8
  %7 = load ptr, ptr %2, align 8
  %8 = getelementptr inbounds %struct._spl_fixedarray, ptr %7, i32 0, i32 2
  store i64 -1, ptr %8, align 8
  ret void
}

; Function Attrs: nounwind uwtable
define internal void @spl_fixedarray_init_elems(ptr noundef %0, i64 noundef %1, i64 noundef %2) #0 {
  %4 = alloca ptr, align 8
  %5 = alloca i64, align 8
  %6 = alloca i64, align 8
  %7 = alloca ptr, align 8
  %8 = alloca ptr, align 8
  store ptr %0, ptr %4, align 8
  store i64 %1, ptr %5, align 8
  store i64 %2, ptr %6, align 8
  %9 = load i64, ptr %5, align 8
  %10 = load i64, ptr %6, align 8
  %11 = icmp sle i64 %9, %10
  call void @llvm.assume(i1 %11)
  %12 = load ptr, ptr %4, align 8
  %13 = getelementptr inbounds %struct._spl_fixedarray, ptr %12, i32 0, i32 1
  %14 = load ptr, ptr %13, align 8
  %15 = load i64, ptr %5, align 8
  %16 = getelementptr inbounds %struct._zval_struct, ptr %14, i64 %15
  store ptr %16, ptr %7, align 8
  %17 = load ptr, ptr %4, align 8
  %18 = getelementptr inbounds %struct._spl_fixedarray, ptr %17, i32 0, i32 1
  %19 = load ptr, ptr %18, align 8
  %20 = load i64, ptr %6, align 8
  %21 = getelementptr inbounds %struct._zval_struct, ptr %19, i64 %20
  store ptr %21, ptr %8, align 8
  br label %22

22:                                               ; preds = %31, %3
  %23 = load ptr, ptr %7, align 8
  %24 = load ptr, ptr %8, align 8
  %25 = icmp ne ptr %23, %24
  br i1 %25, label %26, label %32

26:                                               ; preds = %22
  br label %27

27:                                               ; preds = %26
  %28 = load ptr, ptr %7, align 8
  %29 = getelementptr inbounds %struct._zval_struct, ptr %28, i32 1
  store ptr %29, ptr %7, align 8
  %30 = getelementptr inbounds %struct._zval_struct, ptr %28, i32 0, i32 1
  store i32 1, ptr %30, align 8
  br label %31

31:                                               ; preds = %27
  br label %22

32:                                               ; preds = %22
  ret void
}

; Function Attrs: nounwind uwtable
define internal void @spl_fixedarray_init_non_empty_struct(ptr noundef %0, i64 noundef %1) #0 {
  %3 = alloca ptr, align 8
  %4 = alloca i64, align 8
  store ptr %0, ptr %3, align 8
  store i64 %1, ptr %4, align 8
  %5 = load ptr, ptr %3, align 8
  %6 = getelementptr inbounds %struct._spl_fixedarray, ptr %5, i32 0, i32 0
  store i64 0, ptr %6, align 8
  %7 = load i64, ptr %4, align 8
  %8 = icmp ne i64 %7, 0
  br i1 %8, label %9, label %12

9:                                                ; preds = %2
  %10 = load i64, ptr %4, align 8
  %11 = call noalias ptr @_safe_emalloc(i64 noundef %10, i64 noundef 16, i64 noundef 0)
  br label %13

12:                                               ; preds = %2
  br label %13

13:                                               ; preds = %12, %9
  %14 = phi ptr [ %11, %9 ], [ null, %12 ]
  %15 = load ptr, ptr %3, align 8
  %16 = getelementptr inbounds %struct._spl_fixedarray, ptr %15, i32 0, i32 1
  store ptr %14, ptr %16, align 8
  %17 = load i64, ptr %4, align 8
  %18 = load ptr, ptr %3, align 8
  %19 = getelementptr inbounds %struct._spl_fixedarray, ptr %18, i32 0, i32 0
  store i64 %17, ptr %19, align 8
  %20 = load ptr, ptr %3, align 8
  %21 = getelementptr inbounds %struct._spl_fixedarray, ptr %20, i32 0, i32 2
  store i64 -1, ptr %21, align 8
  ret void
}

; Function Attrs: nounwind uwtable
define internal void @spl_fixedarray_copy_range(ptr noundef %0, i64 noundef %1, ptr noundef %2, ptr noundef %3) #0 {
  %5 = alloca ptr, align 8
  %6 = alloca ptr, align 8
  %7 = alloca i64, align 8
  %8 = alloca ptr, align 8
  %9 = alloca ptr, align 8
  %10 = alloca ptr, align 8
  %11 = alloca ptr, align 8
  %12 = alloca ptr, align 8
  %13 = alloca ptr, align 8
  %14 = alloca i32, align 4
  store ptr %0, ptr %6, align 8
  store i64 %1, ptr %7, align 8
  store ptr %2, ptr %8, align 8
  store ptr %3, ptr %9, align 8
  %15 = load i64, ptr %7, align 8
  %16 = icmp sge i64 %15, 0
  call void @llvm.assume(i1 %16)
  %17 = load ptr, ptr %6, align 8
  %18 = getelementptr inbounds %struct._spl_fixedarray, ptr %17, i32 0, i32 0
  %19 = load i64, ptr %18, align 8
  %20 = load i64, ptr %7, align 8
  %21 = sub nsw i64 %19, %20
  %22 = load ptr, ptr %9, align 8
  %23 = load ptr, ptr %8, align 8
  %24 = ptrtoint ptr %22 to i64
  %25 = ptrtoint ptr %23 to i64
  %26 = sub i64 %24, %25
  %27 = sdiv exact i64 %26, 16
  %28 = icmp sge i64 %21, %27
  call void @llvm.assume(i1 %28)
  %29 = load ptr, ptr %6, align 8
  %30 = getelementptr inbounds %struct._spl_fixedarray, ptr %29, i32 0, i32 1
  %31 = load ptr, ptr %30, align 8
  %32 = load i64, ptr %7, align 8
  %33 = getelementptr inbounds %struct._zval_struct, ptr %31, i64 %32
  store ptr %33, ptr %10, align 8
  br label %34

34:                                               ; preds = %68, %4
  %35 = load ptr, ptr %8, align 8
  %36 = load ptr, ptr %9, align 8
  %37 = icmp ne ptr %35, %36
  br i1 %37, label %38, label %69

38:                                               ; preds = %34
  br label %39

39:                                               ; preds = %38
  %40 = load ptr, ptr %10, align 8
  %41 = getelementptr inbounds %struct._zval_struct, ptr %40, i32 1
  store ptr %41, ptr %10, align 8
  store ptr %40, ptr %11, align 8
  %42 = load ptr, ptr %8, align 8
  %43 = getelementptr inbounds %struct._zval_struct, ptr %42, i32 1
  store ptr %43, ptr %8, align 8
  store ptr %42, ptr %12, align 8
  %44 = load ptr, ptr %12, align 8
  %45 = getelementptr inbounds %struct._zval_struct, ptr %44, i32 0, i32 0
  %46 = load ptr, ptr %45, align 8
  store ptr %46, ptr %13, align 8
  %47 = load ptr, ptr %12, align 8
  %48 = getelementptr inbounds %struct._zval_struct, ptr %47, i32 0, i32 1
  %49 = load i32, ptr %48, align 8
  store i32 %49, ptr %14, align 4
  br label %50

50:                                               ; preds = %39
  %51 = load ptr, ptr %13, align 8
  %52 = load ptr, ptr %11, align 8
  %53 = getelementptr inbounds %struct._zval_struct, ptr %52, i32 0, i32 0
  store ptr %51, ptr %53, align 8
  %54 = load i32, ptr %14, align 4
  %55 = load ptr, ptr %11, align 8
  %56 = getelementptr inbounds %struct._zval_struct, ptr %55, i32 0, i32 1
  store i32 %54, ptr %56, align 8
  br label %57

57:                                               ; preds = %50
  %58 = load i32, ptr %14, align 4
  %59 = and i32 %58, 65280
  %60 = icmp ne i32 %59, 0
  br i1 %60, label %61, label %67

61:                                               ; preds = %57
  %62 = load ptr, ptr %13, align 8
  %63 = getelementptr inbounds %struct._zend_refcounted, ptr %62, i32 0, i32 0
  store ptr %63, ptr %5, align 8
  %64 = load ptr, ptr %5, align 8
  %65 = load i32, ptr %64, align 4
  %66 = add i32 %65, 1
  store i32 %66, ptr %64, align 4
  br label %67

67:                                               ; preds = %61, %57
  br label %68

68:                                               ; preds = %67
  br label %34

69:                                               ; preds = %34
  ret void
}

; Function Attrs: nounwind uwtable
define internal void @spl_fixedarray_init(ptr noundef %0, i64 noundef %1) #0 {
  %3 = alloca ptr, align 8
  %4 = alloca i64, align 8
  store ptr %0, ptr %3, align 8
  store i64 %1, ptr %4, align 8
  %5 = load i64, ptr %4, align 8
  %6 = icmp sgt i64 %5, 0
  br i1 %6, label %7, label %12

7:                                                ; preds = %2
  %8 = load ptr, ptr %3, align 8
  %9 = load i64, ptr %4, align 8
  call void @spl_fixedarray_init_non_empty_struct(ptr noundef %8, i64 noundef %9)
  %10 = load ptr, ptr %3, align 8
  %11 = load i64, ptr %4, align 8
  call void @spl_fixedarray_init_elems(ptr noundef %10, i64 noundef 0, i64 noundef %11)
  br label %14

12:                                               ; preds = %2
  %13 = load ptr, ptr %3, align 8
  call void @spl_fixedarray_default_ctor(ptr noundef %13)
  br label %14

14:                                               ; preds = %12, %7
  ret void
}

; Function Attrs: nounwind uwtable
define internal void @spl_fixedarray_copy_ctor(ptr noundef %0, ptr noundef %1) #0 {
  %3 = alloca ptr, align 8
  %4 = alloca ptr, align 8
  %5 = alloca i64, align 8
  %6 = alloca ptr, align 8
  %7 = alloca ptr, align 8
  store ptr %0, ptr %3, align 8
  store ptr %1, ptr %4, align 8
  %8 = load ptr, ptr %4, align 8
  %9 = getelementptr inbounds %struct._spl_fixedarray, ptr %8, i32 0, i32 0
  %10 = load i64, ptr %9, align 8
  store i64 %10, ptr %5, align 8
  %11 = load ptr, ptr %3, align 8
  %12 = load i64, ptr %5, align 8
  call void @spl_fixedarray_init(ptr noundef %11, i64 noundef %12)
  %13 = load i64, ptr %5, align 8
  %14 = icmp ne i64 %13, 0
  br i1 %14, label %15, label %27

15:                                               ; preds = %2
  %16 = load ptr, ptr %4, align 8
  %17 = getelementptr inbounds %struct._spl_fixedarray, ptr %16, i32 0, i32 1
  %18 = load ptr, ptr %17, align 8
  store ptr %18, ptr %6, align 8
  %19 = load ptr, ptr %4, align 8
  %20 = getelementptr inbounds %struct._spl_fixedarray, ptr %19, i32 0, i32 1
  %21 = load ptr, ptr %20, align 8
  %22 = load i64, ptr %5, align 8
  %23 = getelementptr inbounds %struct._zval_struct, ptr %21, i64 %22
  store ptr %23, ptr %7, align 8
  %24 = load ptr, ptr %3, align 8
  %25 = load ptr, ptr %6, align 8
  %26 = load ptr, ptr %7, align 8
  call void @spl_fixedarray_copy_range(ptr noundef %24, i64 noundef 0, ptr noundef %25, ptr noundef %26)
  br label %27

27:                                               ; preds = %15, %2
  ret void
}

; Function Attrs: nounwind uwtable
define internal ptr @spl_fixed_array_from_obj(ptr noundef %0) #0 {
  %2 = alloca ptr, align 8
  store ptr %0, ptr %2, align 8
  %3 = load ptr, ptr %2, align 8
  %4 = getelementptr inbounds i8, ptr %3, i64 -32
  ret ptr %4
}

; Function Attrs: nounwind uwtable
define internal ptr @spl_fixedarray_object_new_ex(ptr noundef %0, ptr noundef %1, i1 noundef zeroext %2) #0 {
  %4 = alloca ptr, align 8
  %5 = alloca ptr, align 8
  %6 = alloca ptr, align 8
  %7 = alloca ptr, align 8
  %8 = alloca ptr, align 8
  %9 = alloca i64, align 8
  %10 = alloca ptr, align 8
  %11 = alloca ptr, align 8
  %12 = alloca ptr, align 8
  %13 = alloca ptr, align 8
  %14 = alloca i8, align 1
  %15 = alloca ptr, align 8
  %16 = alloca ptr, align 8
  %17 = alloca i8, align 1
  %18 = alloca ptr, align 8
  %19 = alloca ptr, align 8
  store ptr %0, ptr %12, align 8
  store ptr %1, ptr %13, align 8
  %20 = zext i1 %2 to i8
  store i8 %20, ptr %14, align 1
  %21 = load ptr, ptr %12, align 8
  store ptr %21, ptr %16, align 8
  store i8 0, ptr %17, align 1
  %22 = load ptr, ptr %16, align 8
  store i64 88, ptr %9, align 8
  store ptr %22, ptr %10, align 8
  %23 = load i64, ptr %9, align 8
  %24 = load ptr, ptr %10, align 8
  store ptr %24, ptr %4, align 8
  %25 = load ptr, ptr %4, align 8
  %26 = getelementptr inbounds %struct._zend_class_entry, ptr %25, i32 0, i32 5
  %27 = load i32, ptr %26, align 8
  %28 = load ptr, ptr %4, align 8
  %29 = getelementptr inbounds %struct._zend_class_entry, ptr %28, i32 0, i32 4
  %30 = load i32, ptr %29, align 4
  %31 = and i32 %30, 2048
  %32 = icmp ne i32 %31, 0
  %33 = select i1 %32, i32 0, i32 1
  %34 = sub nsw i32 %27, %33
  %35 = sext i32 %34 to i64
  %36 = mul i64 16, %35
  %37 = add i64 %23, %36
  %38 = call noalias ptr @_emalloc(i64 noundef %37) #11
  store ptr %38, ptr %11, align 8
  %39 = load ptr, ptr %11, align 8
  %40 = load i64, ptr %9, align 8
  %41 = sub i64 %40, 56
  call void @llvm.memset.p0.i64(ptr align 1 %39, i8 0, i64 %41, i1 false)
  %42 = load ptr, ptr %11, align 8
  store ptr %42, ptr %15, align 8
  %43 = load ptr, ptr %15, align 8
  %44 = getelementptr inbounds %struct._spl_fixedarray_object, ptr %43, i32 0, i32 2
  %45 = load ptr, ptr %12, align 8
  call void @zend_object_std_init(ptr noundef %44, ptr noundef %45)
  %46 = load ptr, ptr %15, align 8
  %47 = getelementptr inbounds %struct._spl_fixedarray_object, ptr %46, i32 0, i32 2
  %48 = load ptr, ptr %12, align 8
  call void @object_properties_init(ptr noundef %47, ptr noundef %48)
  %49 = load ptr, ptr %13, align 8
  %50 = icmp ne ptr %49, null
  br i1 %50, label %51, label %61

51:                                               ; preds = %3
  %52 = load i8, ptr %14, align 1
  %53 = trunc i8 %52 to i1
  br i1 %53, label %54, label %61

54:                                               ; preds = %51
  %55 = load ptr, ptr %13, align 8
  %56 = call ptr @spl_fixed_array_from_obj(ptr noundef %55)
  store ptr %56, ptr %18, align 8
  %57 = load ptr, ptr %15, align 8
  %58 = getelementptr inbounds %struct._spl_fixedarray_object, ptr %57, i32 0, i32 0
  %59 = load ptr, ptr %18, align 8
  %60 = getelementptr inbounds %struct._spl_fixedarray_object, ptr %59, i32 0, i32 0
  call void @spl_fixedarray_copy_ctor(ptr noundef %58, ptr noundef %60)
  br label %61

61:                                               ; preds = %54, %51, %3
  br label %62

62:                                               ; preds = %70, %61
  %63 = load ptr, ptr %16, align 8
  %64 = icmp ne ptr %63, null
  br i1 %64, label %65, label %74

65:                                               ; preds = %62
  %66 = load ptr, ptr %16, align 8
  %67 = load ptr, ptr @spl_ce_SplFixedArray, align 8
  %68 = icmp eq ptr %66, %67
  br i1 %68, label %69, label %70

69:                                               ; preds = %65
  br label %74

70:                                               ; preds = %65
  %71 = load ptr, ptr %16, align 8
  %72 = getelementptr inbounds %struct._zend_class_entry, ptr %71, i32 0, i32 2
  %73 = load ptr, ptr %72, align 8
  store ptr %73, ptr %16, align 8
  store i8 1, ptr %17, align 1
  br label %62

74:                                               ; preds = %69, %62
  %75 = load ptr, ptr %16, align 8
  %76 = icmp ne ptr %75, null
  call void @llvm.assume(i1 %76)
  %77 = load i8, ptr %17, align 1
  %78 = trunc i8 %77 to i1
  %79 = xor i1 %78, true
  %80 = xor i1 %79, true
  %81 = zext i1 %80 to i32
  %82 = sext i32 %81 to i64
  %83 = icmp ne i64 %82, 0
  br i1 %83, label %84, label %114

84:                                               ; preds = %74
  %85 = load ptr, ptr %12, align 8
  %86 = getelementptr inbounds %struct._zend_class_entry, ptr %85, i32 0, i32 10
  %87 = load ptr, ptr @zend_known_strings, align 8
  %88 = getelementptr inbounds ptr, ptr %87, i64 69
  %89 = load ptr, ptr %88, align 8
  store ptr %86, ptr %6, align 8
  store ptr %89, ptr %7, align 8
  %90 = load ptr, ptr %6, align 8
  %91 = load ptr, ptr %7, align 8
  %92 = call ptr @zend_hash_find(ptr noundef %90, ptr noundef %91) #10
  store ptr %92, ptr %8, align 8
  %93 = load ptr, ptr %8, align 8
  %94 = icmp ne ptr %93, null
  br i1 %94, label %95, label %101

95:                                               ; preds = %84
  %96 = load ptr, ptr %8, align 8
  %97 = load ptr, ptr %96, align 8
  %98 = icmp ne ptr %97, null
  call void @llvm.assume(i1 %98)
  %99 = load ptr, ptr %8, align 8
  %100 = load ptr, ptr %99, align 8
  store ptr %100, ptr %5, align 8
  br label %102

101:                                              ; preds = %84
  store ptr null, ptr %5, align 8
  br label %102

102:                                              ; preds = %101, %95
  %103 = load ptr, ptr %5, align 8
  store ptr %103, ptr %19, align 8
  %104 = load ptr, ptr %19, align 8
  %105 = getelementptr inbounds %struct.anon.7, ptr %104, i32 0, i32 4
  %106 = load ptr, ptr %105, align 8
  %107 = load ptr, ptr %16, align 8
  %108 = icmp eq ptr %106, %107
  br i1 %108, label %109, label %110

109:                                              ; preds = %102
  store ptr null, ptr %19, align 8
  br label %110

110:                                              ; preds = %109, %102
  %111 = load ptr, ptr %19, align 8
  %112 = load ptr, ptr %15, align 8
  %113 = getelementptr inbounds %struct._spl_fixedarray_object, ptr %112, i32 0, i32 1
  store ptr %111, ptr %113, align 8
  br label %114

114:                                              ; preds = %110, %74
  %115 = load ptr, ptr %15, align 8
  %116 = getelementptr inbounds %struct._spl_fixedarray_object, ptr %115, i32 0, i32 2
  ret ptr %116
}