; Function Attrs: nounwind uwtable
define internal fastcc noundef nonnull ptr @spl_fixedarray_object_new_ex(ptr noundef %0, ptr noundef readonly %1, i1 noundef zeroext %2) unnamed_addr #0 {
  %4 = getelementptr inbounds i8, ptr %0, i64 32
  %5 = load i32, ptr %4, align 8
  %6 = getelementptr inbounds i8, ptr %0, i64 28
  %7 = load i32, ptr %6, align 4
  %8 = lshr i32 %7, 11
  %.lobit = and i32 %8, 1
  %9 = xor i32 %.lobit, 1
  %10 = sub nsw i32 %5, %9
  %11 = sext i32 %10 to i64
  %12 = shl nsw i64 %11, 4
  %13 = add nsw i64 %12, 88
  %14 = tail call noalias ptr @_emalloc(i64 noundef %13) #14
  tail call void @llvm.memset.p0.i64(ptr noundef nonnull align 1 dereferenceable(32) %14, i8 0, i64 32, i1 false)
  %15 = getelementptr inbounds i8, ptr %14, i64 32
  tail call void @zend_object_std_init(ptr noundef nonnull %15, ptr noundef %0) #12
  tail call void @object_properties_init(ptr noundef nonnull %15, ptr noundef %0) #12
  %.not = icmp ne ptr %1, null
  %brmerge.not = and i1 %.not, %2
  br i1 %brmerge.not, label %16, label %spl_fixedarray_copy_ctor.exit

16:                                               ; preds = %3
  %17 = getelementptr inbounds i8, ptr %1, i64 -32
  %18 = load i64, ptr %17, align 8
  %19 = icmp sgt i64 %18, 0
  br i1 %19, label %.lr.ph.preheader.i.i.i, label %26

.lr.ph.preheader.i.i.i:                           ; preds = %16
  store i64 0, ptr %14, align 8
  %20 = tail call noalias ptr @_safe_emalloc(i64 noundef %18, i64 noundef 16, i64 noundef 0) #12
  %21 = getelementptr inbounds i8, ptr %14, i64 8
  store ptr %20, ptr %21, align 8
  store i64 %18, ptr %14, align 8
  %22 = getelementptr inbounds i8, ptr %14, i64 16
  store i64 -1, ptr %22, align 8
  %23 = getelementptr inbounds %struct._zval_struct, ptr %20, i64 %18
  br label %.lr.ph.i.i.i

.lr.ph.i.i.i:                                     ; preds = %.lr.ph.i.i.i, %.lr.ph.preheader.i.i.i
  %.02.i.i.i = phi ptr [ %24, %.lr.ph.i.i.i ], [ %20, %.lr.ph.preheader.i.i.i ]
  %24 = getelementptr inbounds i8, ptr %.02.i.i.i, i64 16
  %25 = getelementptr inbounds i8, ptr %.02.i.i.i, i64 8
  store i32 1, ptr %25, align 8
  %.not.i5.i.i = icmp eq ptr %24, %23
  br i1 %.not.i5.i.i, label %spl_fixedarray_init.exit.i, label %.lr.ph.i.i.i

26:                                               ; preds = %16
  %27 = getelementptr inbounds i8, ptr %14, i64 16
  tail call void @llvm.memset.p0.i64(ptr noundef nonnull align 8 dereferenceable(16) %14, i8 0, i64 16, i1 false)
  store i64 -1, ptr %27, align 8
  br label %spl_fixedarray_init.exit.i

spl_fixedarray_init.exit.i:                       ; preds = %.lr.ph.i.i.i, %26
  %.val9.i = phi ptr [ null, %26 ], [ %20, %.lr.ph.i.i.i ]
  %.not.i = icmp eq i64 %18, 0
  br i1 %.not.i, label %spl_fixedarray_copy_ctor.exit, label %28

28:                                               ; preds = %spl_fixedarray_init.exit.i
  %29 = getelementptr inbounds i8, ptr %1, i64 -24
  %30 = load ptr, ptr %29, align 8
  %31 = getelementptr inbounds %struct._zval_struct, ptr %30, i64 %18
  br label %.lr.ph.i.i

.lr.ph.i.i:                                       ; preds = %42, %28
  %.03.i.i = phi ptr [ %33, %42 ], [ %30, %28 ]
  %.0192.i.i = phi ptr [ %32, %42 ], [ %.val9.i, %28 ]
  %32 = getelementptr inbounds i8, ptr %.0192.i.i, i64 16
  %33 = getelementptr inbounds i8, ptr %.03.i.i, i64 16
  %34 = load ptr, ptr %.03.i.i, align 8
  %35 = getelementptr inbounds i8, ptr %.03.i.i, i64 8
  %36 = load i32, ptr %35, align 8
  store ptr %34, ptr %.0192.i.i, align 8
  %37 = getelementptr inbounds i8, ptr %.0192.i.i, i64 8
  store i32 %36, ptr %37, align 8
  %38 = and i32 %36, 65280
  %.not20.i.i = icmp eq i32 %38, 0
  br i1 %.not20.i.i, label %42, label %39

39:                                               ; preds = %.lr.ph.i.i
  %40 = load i32, ptr %34, align 4
  %41 = add i32 %40, 1
  store i32 %41, ptr %34, align 4
  br label %42

42:                                               ; preds = %39, %.lr.ph.i.i
  %.not.i.i = icmp eq ptr %33, %31
  br i1 %.not.i.i, label %spl_fixedarray_copy_ctor.exit, label %.lr.ph.i.i

spl_fixedarray_copy_ctor.exit:                    ; preds = %42, %spl_fixedarray_init.exit.i, %3
  %43 = load ptr, ptr @spl_ce_SplFixedArray, align 8
  %44 = icmp ne ptr %0, null
  %45 = icmp ne ptr %43, %0
  %or.cond.not43 = select i1 %44, i1 %45, i1 false
  br i1 %or.cond.not43, label %.lr.ph, label %._crit_edge.thread

._crit_edge.thread:                               ; preds = %spl_fixedarray_copy_ctor.exit
  tail call void @llvm.assume(i1 %44)
  br label %61

.lr.ph:                                           ; preds = %spl_fixedarray_copy_ctor.exit, %.lr.ph
  %.03444 = phi ptr [ %47, %.lr.ph ], [ %0, %spl_fixedarray_copy_ctor.exit ]
  %46 = getelementptr inbounds i8, ptr %.03444, i64 16
  %47 = load ptr, ptr %46, align 8
  %48 = icmp ne ptr %47, null
  %49 = icmp ne ptr %47, %43
  %or.cond.not = select i1 %48, i1 %49, i1 false
  br i1 %or.cond.not, label %.lr.ph, label %._crit_edge

._crit_edge:                                      ; preds = %.lr.ph
  tail call void @llvm.assume(i1 %48)
  br i1 %or.cond.not43, label %50, label %61

50:                                               ; preds = %._crit_edge
  %51 = getelementptr inbounds i8, ptr %0, i64 64
  %52 = load ptr, ptr @zend_known_strings, align 8
  %53 = getelementptr inbounds i8, ptr %52, i64 552
  %54 = load ptr, ptr %53, align 8
  %55 = tail call ptr @zend_hash_find(ptr noundef nonnull %51, ptr noundef %54) #12
  %.not38 = icmp ne ptr %55, null
  tail call void @llvm.assume(i1 %.not38)
  %56 = load ptr, ptr %55, align 8, !nonnull !4, !noundef !4
  %57 = getelementptr inbounds i8, ptr %56, i64 16
  %58 = load ptr, ptr %57, align 8
  %59 = icmp eq ptr %58, %47
  %spec.store.select = select i1 %59, ptr null, ptr %56
  %60 = getelementptr inbounds i8, ptr %14, i64 24
  store ptr %spec.store.select, ptr %60, align 8
  br label %61

61:                                               ; preds = %._crit_edge.thread, %50, %._crit_edge
  ret ptr %15
}